; Function Attrs: nounwind uwtable
define void @Gia_ObjComputeTruthTableTest(ptr noundef %0) local_unnamed_addr #2 {
  %2 = alloca %struct.timespec, align 8
  %3 = alloca %struct.timespec, align 8
  call void @llvm.lifetime.start.p0(i64 16, ptr nonnull %3) #23
  %4 = call i32 @clock_gettime(i32 noundef 1, ptr noundef nonnull %3) #23
  %5 = icmp slt i32 %4, 0
  br i1 %5, label %Abc_Clock.exit, label %6

6:                                                ; preds = %1
  %7 = load i64, ptr %3, align 8, !tbaa !80
  %.neg13 = mul i64 %7, -1000000
  %8 = getelementptr inbounds nuw i8, ptr %3, i64 8
  %9 = load i64, ptr %8, align 8, !tbaa !82
  %.neg = sdiv i64 %9, -1000
  %.neg14 = add i64 %.neg, %.neg13
  br label %Abc_Clock.exit

Abc_Clock.exit:                                   ; preds = %1, %6
  %.0.i.neg = phi i64 [ %.neg14, %6 ], [ 1, %1 ]
  call void @llvm.lifetime.end.p0(i64 16, ptr nonnull %3) #23
  %10 = getelementptr i8, ptr %0, i64 32
  %11 = getelementptr i8, ptr %0, i64 16
  %12 = getelementptr i8, ptr %0, i64 72
  %.val915 = load i32, ptr %11, align 8, !tbaa !60
  %.val1016 = load ptr, ptr %12, align 8, !tbaa !29
  %13 = getelementptr i8, ptr %.val1016, i64 4
  %.val10.val17 = load i32, ptr %13, align 4, !tbaa !36
  %14 = icmp sgt i32 %.val10.val17, %.val915
  br i1 %14, label %.lr.ph, label %.critedge

.lr.ph:                                           ; preds = %Abc_Clock.exit, %15
  %indvars.iv = phi i64 [ %indvars.iv.next, %15 ], [ 0, %Abc_Clock.exit ]
  %.val1019 = phi ptr [ %.val10, %15 ], [ %.val1016, %Abc_Clock.exit ]
  %.val = load ptr, ptr %10, align 8, !tbaa !3
  %.not = icmp eq ptr %.val, null
  br i1 %.not, label %.critedge, label %15

15:                                               ; preds = %.lr.ph
  %16 = getelementptr i8, ptr %.val1019, i64 8
  %.val8.val = load ptr, ptr %16, align 8, !tbaa !30
  %17 = getelementptr inbounds nuw i32, ptr %.val8.val, i64 %indvars.iv
  %18 = load i32, ptr %17, align 4, !tbaa !31
  %19 = sext i32 %18 to i64
  %20 = getelementptr inbounds %struct.Gia_Obj_t_, ptr %.val, i64 %19
  %21 = call ptr @Gia_ObjComputeTruthTable(ptr noundef nonnull %0, ptr noundef nonnull %20)
  %indvars.iv.next = add nuw nsw i64 %indvars.iv, 1
  %.val9 = load i32, ptr %11, align 8, !tbaa !60
  %.val10 = load ptr, ptr %12, align 8, !tbaa !29
  %22 = getelementptr i8, ptr %.val10, i64 4
  %.val10.val = load i32, ptr %22, align 4, !tbaa !36
  %23 = sub nsw i32 %.val10.val, %.val9
  %24 = sext i32 %23 to i64
  %25 = icmp slt i64 %indvars.iv.next, %24
  br i1 %25, label %.lr.ph, label %.critedge, !llvm.loop !83

.critedge:                                        ; preds = %.lr.ph, %15, %Abc_Clock.exit
  call void @llvm.lifetime.start.p0(i64 16, ptr nonnull %2) #23
  %26 = call i32 @clock_gettime(i32 noundef 1, ptr noundef nonnull %2) #23
  %27 = icmp slt i32 %26, 0
  br i1 %27, label %Abc_Clock.exit12, label %28

28:                                               ; preds = %.critedge
  %29 = load i64, ptr %2, align 8, !tbaa !80
  %30 = mul nsw i64 %29, 1000000
  %31 = getelementptr inbounds nuw i8, ptr %2, i64 8
  %32 = load i64, ptr %31, align 8, !tbaa !82
  %33 = sdiv i64 %32, 1000
  %34 = add nsw i64 %33, %30
  br label %Abc_Clock.exit12

Abc_Clock.exit12:                                 ; preds = %.critedge, %28
  %.0.i11 = phi i64 [ %34, %28 ], [ -1, %.critedge ]
  call void @llvm.lifetime.end.p0(i64 16, ptr nonnull %2) #23
  %35 = add i64 %.0.i11, %.0.i.neg
  call void (i32, ptr, ...) @Abc_Print(i32 poison, ptr noundef nonnull @.str.6, ptr noundef nonnull @.str.2)
  %36 = sitofp i64 %35 to double
  %37 = fdiv double %36, 1.000000e+06
  call void (i32, ptr, ...) @Abc_Print(i32 poison, ptr noundef nonnull @.str.7, double noundef %37)
  ret void
}